target datalayout = "e-m:e-p270:32:32-p271:32:32-p272:64:64-i64:64-i128:128-f80:128-n8:16:32:64-S128"
target triple = "x86_64-pc-linux-gnu"

%class.LIR_Opr = type { i64 }
%class.LIR_Op = type { ptr, %class.LIR_Opr, i16, i16, ptr, i32, i32, ptr }
%class.LIR_OpCall = type { %class.LIR_Op, ptr, ptr }
%class.LIR_OpRTCall = type { %class.LIR_OpCall, %class.LIR_Opr }

; Function Attrs: mustprogress nounwind uwtable
define linkonce_odr hidden noundef ptr @_ZNK6LIR_Op4infoEv(ptr noundef nonnull align 8 dereferenceable(48) %0) #1 comdat align 2 {
  %2 = alloca ptr, align 8
  store ptr %0, ptr %2, align 8
  %3 = load ptr, ptr %2, align 8
  %4 = getelementptr inbounds %class.LIR_Op, ptr %3, i32 0, i32 4
  %5 = load ptr, ptr %4, align 8
  ret ptr %5
}

; Function Attrs: mustprogress nounwind uwtable
define linkonce_odr hidden i64 @_ZNK12LIR_OpRTCall3tmpEv(ptr noundef nonnull align 8 dereferenceable(72) %0) #1 comdat align 2 {
  %2 = alloca %class.LIR_Opr, align 8
  %3 = alloca ptr, align 8
  store ptr %0, ptr %3, align 8
  %4 = load ptr, ptr %3, align 8
  %5 = getelementptr inbounds %class.LIR_OpRTCall, ptr %4, i32 0, i32 1
  call void @llvm.memcpy.p0.p0.i64(ptr align 8 %2, ptr align 8 %5, i64 8, i1 false)
  %6 = getelementptr inbounds %class.LIR_Opr, ptr %2, i32 0, i32 0
  %7 = load i64, ptr %6, align 8
  ret i64 %7
}

; Function Attrs: mustprogress nounwind uwtable
define linkonce_odr hidden noundef ptr @_ZNK10LIR_OpCall9argumentsEv(ptr noundef nonnull align 8 dereferenceable(64) %0) #1 comdat align 2 {
  %2 = alloca ptr, align 8
  store ptr %0, ptr %2, align 8
  %3 = load ptr, ptr %2, align 8
  %4 = getelementptr inbounds %class.LIR_OpCall, ptr %3, i32 0, i32 2
  %5 = load ptr, ptr %4, align 8
  ret ptr %5
}

; Function Attrs: mustprogress nounwind uwtable
define linkonce_odr hidden noundef ptr @_ZNK10LIR_OpCall4addrEv(ptr noundef nonnull align 8 dereferenceable(64) %0) #1 comdat align 2 {
  %2 = alloca ptr, align 8
  store ptr %0, ptr %2, align 8
  %3 = load ptr, ptr %2, align 8
  %4 = getelementptr inbounds %class.LIR_OpCall, ptr %3, i32 0, i32 1
  %5 = load ptr, ptr %4, align 8
  ret ptr %5
}

; Function Attrs: mustprogress nounwind uwtable
define linkonce_odr hidden i64 @_ZNK6LIR_Op10result_oprEv(ptr noundef nonnull align 8 dereferenceable(48) %0) #1 comdat align 2 {
  %2 = alloca %class.LIR_Opr, align 8
  %3 = alloca ptr, align 8
  store ptr %0, ptr %3, align 8
  %4 = load ptr, ptr %3, align 8
  %5 = getelementptr inbounds %class.LIR_Op, ptr %4, i32 0, i32 1
  call void @llvm.memcpy.p0.p0.i64(ptr align 8 %2, ptr align 8 %5, i64 8, i1 false)
  %6 = getelementptr inbounds %class.LIR_Opr, ptr %2, i32 0, i32 0
  %7 = load i64, ptr %6, align 8
  ret i64 %7
}

; Function Attrs: mustprogress nounwind uwtable
define hidden void @_ZN13LIR_Assembler11emit_rtcallEP12LIR_OpRTCall(ptr noundef nonnull align 8 dereferenceable(96) %0, ptr noundef %1) #1 align 2 {
  %3 = alloca ptr, align 8
  %4 = alloca ptr, align 8
  %5 = alloca %class.LIR_Opr, align 8
  %6 = alloca %class.LIR_Opr, align 8
  store ptr %0, ptr %3, align 8
  store ptr %1, ptr %4, align 8
  %7 = load ptr, ptr %3, align 8
  %8 = load ptr, ptr %4, align 8
  %9 = call i64 @_ZNK6LIR_Op10result_oprEv(ptr noundef nonnull align 8 dereferenceable(48) %8)
  %10 = getelementptr inbounds %class.LIR_Opr, ptr %5, i32 0, i32 0
  store i64 %9, ptr %10, align 8
  %11 = load ptr, ptr %4, align 8
  %12 = call noundef ptr @_ZNK10LIR_OpCall4addrEv(ptr noundef nonnull align 8 dereferenceable(64) %11)
  %13 = load ptr, ptr %4, align 8
  %14 = call noundef ptr @_ZNK10LIR_OpCall9argumentsEv(ptr noundef nonnull align 8 dereferenceable(64) %13)
  %15 = load ptr, ptr %4, align 8
  %16 = call i64 @_ZNK12LIR_OpRTCall3tmpEv(ptr noundef nonnull align 8 dereferenceable(72) %15)
  %17 = getelementptr inbounds %class.LIR_Opr, ptr %6, i32 0, i32 0
  store i64 %16, ptr %17, align 8
  %18 = load ptr, ptr %4, align 8
  %19 = call noundef ptr @_ZNK6LIR_Op4infoEv(ptr noundef nonnull align 8 dereferenceable(48) %18)
  %20 = getelementptr inbounds %class.LIR_Opr, ptr %5, i32 0, i32 0
  %21 = load i64, ptr %20, align 8
  %22 = getelementptr inbounds %class.LIR_Opr, ptr %6, i32 0, i32 0
  %23 = load i64, ptr %22, align 8
  call void @_ZN13LIR_Assembler7rt_callE7LIR_OprPhPK13GrowableArrayIS0_ES0_P12CodeEmitInfo(ptr noundef nonnull align 8 dereferenceable(96) %7, i64 %21, ptr noundef %12, ptr noundef %14, i64 %23, ptr noundef %19)
  ret void
}