; Function Attrs: mustprogress nounwind uwtable
define hidden void @_ZN13LIR_Assembler11emit_rtcallEP12LIR_OpRTCall(ptr noundef nonnull align 8 dereferenceable(96) %0, ptr nocapture noundef readonly %1) local_unnamed_addr #0 align 2 {
  %3 = getelementptr inbounds i8, ptr %1, i64 8
  %.sroa.0.0.copyload.i = load i64, ptr %3, align 8
  %4 = getelementptr inbounds i8, ptr %1, i64 48
  %5 = load ptr, ptr %4, align 8
  %6 = getelementptr inbounds i8, ptr %1, i64 56
  %7 = load ptr, ptr %6, align 8
  %8 = getelementptr inbounds i8, ptr %1, i64 64
  %.sroa.0.0.copyload.i7 = load i64, ptr %8, align 8
  %9 = getelementptr inbounds i8, ptr %1, i64 24
  %10 = load ptr, ptr %9, align 8
  tail call void @_ZN13LIR_Assembler7rt_callE7LIR_OprPhPK13GrowableArrayIS0_ES0_P12CodeEmitInfo(ptr noundef nonnull align 8 dereferenceable(96) %0, i64 %.sroa.0.0.copyload.i, ptr noundef %5, ptr noundef %7, i64 %.sroa.0.0.copyload.i7, ptr noundef %10) #11
  ret void
}